; ModuleID = '51/921.c'
source_filename = "51/921.c"
target datalayout = "e-m:e-p270:32:32-p271:32:32-p272:64:64-i64:64-f80:128-n8:16:32:64-S128"
target triple = "x86_64-pc-linux-gnu"

@.str = private unnamed_addr constant [3 x i8] c"%d\00", align 1
@.str.1 = private unnamed_addr constant [4 x i8] c"%d\0A\00", align 1
@.str.2 = private unnamed_addr constant [4 x i8] c"%s\0A\00", align 1
@.str.3 = private unnamed_addr constant [3 x i8] c"NO\00", align 1

; Function Attrs: noinline nounwind uwtable
define dso_local i32 @main() #0 {
  %1 = alloca i32, align 4
  %2 = alloca i32, align 4
  %3 = alloca i32, align 4
  %4 = alloca i32, align 4
  %5 = alloca i32, align 4
  %6 = alloca i32, align 4
  %7 = alloca [500 x i32], align 16
  %8 = alloca [600 x i8], align 16
  %9 = alloca [510 x [5 x i8]], align 16
  %10 = alloca [5 x i8], align 1
  store i32 0, i32* %1, align 4
  store i32 0, i32* %4, align 4
  %11 = bitcast [500 x i32]* %7 to i8*
  call void @llvm.memset.p0i8.i64(i8* align 16 %11, i8 0, i64 2000, i1 false)
  %12 = call i32 (i8*, ...) @__isoc99_scanf(i8* getelementptr inbounds ([3 x i8], [3 x i8]* @.str, i64 0, i64 0), i32* %6)
  %13 = call i32 @getchar()
  %14 = getelementptr inbounds [600 x i8], [600 x i8]* %8, i64 0, i64 0
  %15 = call i32 (i8*, ...) bitcast (i32 (...)* @gets to i32 (i8*, ...)*)(i8* %14)
  %16 = getelementptr inbounds [600 x i8], [600 x i8]* %8, i64 0, i64 0
  %17 = call i64 @strlen(i8* %16) #5
  %18 = trunc i64 %17 to i32
  store i32 %18, i32* %5, align 4
  store i32 0, i32* %2, align 4
  br label %19

19:                                               ; preds = %58, %0
  %20 = load i32, i32* %2, align 4
  %21 = load i32, i32* %5, align 4
  %22 = load i32, i32* %6, align 4
  %23 = sub nsw i32 %21, %22
  %24 = icmp sle i32 %20, %23
  br i1 %24, label %25, label %61

25:                                               ; preds = %19
  %26 = load i32, i32* %2, align 4
  store i32 %26, i32* %3, align 4
  br label %27

27:                                               ; preds = %46, %25
  %28 = load i32, i32* %3, align 4
  %29 = load i32, i32* %2, align 4
  %30 = load i32, i32* %6, align 4
  %31 = add nsw i32 %29, %30
  %32 = icmp slt i32 %28, %31
  br i1 %32, label %33, label %49

33:                                               ; preds = %27
  %34 = load i32, i32* %3, align 4
  %35 = sext i32 %34 to i64
  %36 = getelementptr inbounds [600 x i8], [600 x i8]* %8, i64 0, i64 %35
  %37 = load i8, i8* %36, align 1
  %38 = load i32, i32* %4, align 4
  %39 = sext i32 %38 to i64
  %40 = getelementptr inbounds [510 x [5 x i8]], [510 x [5 x i8]]* %9, i64 0, i64 %39
  %41 = load i32, i32* %3, align 4
  %42 = load i32, i32* %2, align 4
  %43 = sub nsw i32 %41, %42
  %44 = sext i32 %43 to i64
  %45 = getelementptr inbounds [5 x i8], [5 x i8]* %40, i64 0, i64 %44
  store i8 %37, i8* %45, align 1
  br label %46

46:                                               ; preds = %33
  %47 = load i32, i32* %3, align 4
  %48 = add nsw i32 %47, 1
  store i32 %48, i32* %3, align 4
  br label %27

49:                                               ; preds = %27
  %50 = load i32, i32* %4, align 4
  %51 = sext i32 %50 to i64
  %52 = getelementptr inbounds [510 x [5 x i8]], [510 x [5 x i8]]* %9, i64 0, i64 %51
  %53 = load i32, i32* %3, align 4
  %54 = sext i32 %53 to i64
  %55 = getelementptr inbounds [5 x i8], [5 x i8]* %52, i64 0, i64 %54
  store i8 0, i8* %55, align 1
  %56 = load i32, i32* %4, align 4
  %57 = add nsw i32 %56, 1
  store i32 %57, i32* %4, align 4
  br label %58

58:                                               ; preds = %49
  %59 = load i32, i32* %2, align 4
  %60 = add nsw i32 %59, 1
  store i32 %60, i32* %2, align 4
  br label %19

61:                                               ; preds = %19
  store i32 0, i32* %2, align 4
  br label %62

62:                                               ; preds = %114, %61
  %63 = load i32, i32* %2, align 4
  %64 = load i32, i32* %4, align 4
  %65 = icmp slt i32 %63, %64
  br i1 %65, label %66, label %117

66:                                               ; preds = %62
  %67 = load i32, i32* %2, align 4
  store i32 %67, i32* %3, align 4
  br label %68

68:                                               ; preds = %110, %66
  %69 = load i32, i32* %3, align 4
  %70 = load i32, i32* %4, align 4
  %71 = icmp slt i32 %69, %70
  br i1 %71, label %72, label %113

72:                                               ; preds = %68
  store i32 0, i32* %5, align 4
  br label %73

73:                                               ; preds = %97, %72
  %74 = load i32, i32* %5, align 4
  %75 = load i32, i32* %6, align 4
  %76 = icmp slt i32 %74, %75
  br i1 %76, label %77, label %100

77:                                               ; preds = %73
  %78 = load i32, i32* %2, align 4
  %79 = sext i32 %78 to i64
  %80 = getelementptr inbounds [510 x [5 x i8]], [510 x [5 x i8]]* %9, i64 0, i64 %79
  %81 = load i32, i32* %5, align 4
  %82 = sext i32 %81 to i64
  %83 = getelementptr inbounds [5 x i8], [5 x i8]* %80, i64 0, i64 %82
  %84 = load i8, i8* %83, align 1
  %85 = sext i8 %84 to i32
  %86 = load i32, i32* %3, align 4
  %87 = sext i32 %86 to i64
  %88 = getelementptr inbounds [510 x [5 x i8]], [510 x [5 x i8]]* %9, i64 0, i64 %87
  %89 = load i32, i32* %5, align 4
  %90 = sext i32 %89 to i64
  %91 = getelementptr inbounds [5 x i8], [5 x i8]* %88, i64 0, i64 %90
  %92 = load i8, i8* %91, align 1
  %93 = sext i8 %92 to i32
  %94 = icmp ne i32 %85, %93
  br i1 %94, label %95, label %96

95:                                               ; preds = %77
  store i32 0, i32* %5, align 4
  br label %100

96:                                               ; preds = %77
  br label %97

97:                                               ; preds = %96
  %98 = load i32, i32* %5, align 4
  %99 = add nsw i32 %98, 1
  store i32 %99, i32* %5, align 4
  br label %73

100:                                              ; preds = %95, %73
  %101 = load i32, i32* %5, align 4
  %102 = icmp ne i32 %101, 0
  br i1 %102, label %103, label %109

103:                                              ; preds = %100
  %104 = load i32, i32* %2, align 4
  %105 = sext i32 %104 to i64
  %106 = getelementptr inbounds [500 x i32], [500 x i32]* %7, i64 0, i64 %105
  %107 = load i32, i32* %106, align 4
  %108 = add nsw i32 %107, 1
  store i32 %108, i32* %106, align 4
  br label %109

109:                                              ; preds = %103, %100
  br label %110

110:                                              ; preds = %109
  %111 = load i32, i32* %3, align 4
  %112 = add nsw i32 %111, 1
  store i32 %112, i32* %3, align 4
  br label %68

113:                                              ; preds = %68
  br label %114

114:                                              ; preds = %113
  %115 = load i32, i32* %2, align 4
  %116 = add nsw i32 %115, 1
  store i32 %116, i32* %2, align 4
  br label %62

117:                                              ; preds = %62
  store i32 0, i32* %2, align 4
  br label %118

118:                                              ; preds = %188, %117
  %119 = load i32, i32* %2, align 4
  %120 = load i32, i32* %4, align 4
  %121 = sub nsw i32 %120, 1
  %122 = icmp slt i32 %119, %121
  br i1 %122, label %123, label %191

123:                                              ; preds = %118
  store i32 0, i32* %3, align 4
  br label %124

124:                                              ; preds = %184, %123
  %125 = load i32, i32* %3, align 4
  %126 = load i32, i32* %4, align 4
  %127 = load i32, i32* %2, align 4
  %128 = sub nsw i32 %126, %127
  %129 = sub nsw i32 %128, 1
  %130 = icmp slt i32 %125, %129
  br i1 %130, label %131, label %187

131:                                              ; preds = %124
  %132 = load i32, i32* %3, align 4
  %133 = sext i32 %132 to i64
  %134 = getelementptr inbounds [500 x i32], [500 x i32]* %7, i64 0, i64 %133
  %135 = load i32, i32* %134, align 4
  %136 = load i32, i32* %3, align 4
  %137 = add nsw i32 %136, 1
  %138 = sext i32 %137 to i64
  %139 = getelementptr inbounds [500 x i32], [500 x i32]* %7, i64 0, i64 %138
  %140 = load i32, i32* %139, align 4
  %141 = icmp slt i32 %135, %140
  br i1 %141, label %142, label %183

142:                                              ; preds = %131
  %143 = load i32, i32* %3, align 4
  %144 = add nsw i32 %143, 1
  %145 = sext i32 %144 to i64
  %146 = getelementptr inbounds [500 x i32], [500 x i32]* %7, i64 0, i64 %145
  %147 = load i32, i32* %146, align 4
  store i32 %147, i32* %5, align 4
  %148 = load i32, i32* %3, align 4
  %149 = sext i32 %148 to i64
  %150 = getelementptr inbounds [500 x i32], [500 x i32]* %7, i64 0, i64 %149
  %151 = load i32, i32* %150, align 4
  %152 = load i32, i32* %3, align 4
  %153 = add nsw i32 %152, 1
  %154 = sext i32 %153 to i64
  %155 = getelementptr inbounds [500 x i32], [500 x i32]* %7, i64 0, i64 %154
  store i32 %151, i32* %155, align 4
  %156 = load i32, i32* %5, align 4
  %157 = load i32, i32* %3, align 4
  %158 = sext i32 %157 to i64
  %159 = getelementptr inbounds [500 x i32], [500 x i32]* %7, i64 0, i64 %158
  store i32 %156, i32* %159, align 4
  %160 = getelementptr inbounds [5 x i8], [5 x i8]* %10, i64 0, i64 0
  %161 = load i32, i32* %3, align 4
  %162 = sext i32 %161 to i64
  %163 = getelementptr inbounds [510 x [5 x i8]], [510 x [5 x i8]]* %9, i64 0, i64 %162
  %164 = getelementptr inbounds [5 x i8], [5 x i8]* %163, i64 0, i64 0
  %165 = call i8* @strcpy(i8* %160, i8* %164) #6
  %166 = load i32, i32* %3, align 4
  %167 = sext i32 %166 to i64
  %168 = getelementptr inbounds [510 x [5 x i8]], [510 x [5 x i8]]* %9, i64 0, i64 %167
  %169 = getelementptr inbounds [5 x i8], [5 x i8]* %168, i64 0, i64 0
  %170 = load i32, i32* %3, align 4
  %171 = add nsw i32 %170, 1
  %172 = sext i32 %171 to i64
  %173 = getelementptr inbounds [510 x [5 x i8]], [510 x [5 x i8]]* %9, i64 0, i64 %172
  %174 = getelementptr inbounds [5 x i8], [5 x i8]* %173, i64 0, i64 0
  %175 = call i8* @strcpy(i8* %169, i8* %174) #6
  %176 = load i32, i32* %3, align 4
  %177 = add nsw i32 %176, 1
  %178 = sext i32 %177 to i64
  %179 = getelementptr inbounds [510 x [5 x i8]], [510 x [5 x i8]]* %9, i64 0, i64 %178
  %180 = getelementptr inbounds [5 x i8], [5 x i8]* %179, i64 0, i64 0
  %181 = getelementptr inbounds [5 x i8], [5 x i8]* %10, i64 0, i64 0
  %182 = call i8* @strcpy(i8* %180, i8* %181) #6
  br label %183

183:                                              ; preds = %142, %131
  br label %184

184:                                              ; preds = %183
  %185 = load i32, i32* %3, align 4
  %186 = add nsw i32 %185, 1
  store i32 %186, i32* %3, align 4
  br label %124

187:                                              ; preds = %124
  br label %188

188:                                              ; preds = %187
  %189 = load i32, i32* %2, align 4
  %190 = add nsw i32 %189, 1
  store i32 %190, i32* %2, align 4
  br label %118

191:                                              ; preds = %118
  %192 = getelementptr inbounds [500 x i32], [500 x i32]* %7, i64 0, i64 0
  %193 = load i32, i32* %192, align 16
  %194 = icmp ne i32 %193, 1
  br i1 %194, label %195, label %223

195:                                              ; preds = %191
  %196 = getelementptr inbounds [500 x i32], [500 x i32]* %7, i64 0, i64 0
  %197 = load i32, i32* %196, align 16
  %198 = call i32 (i8*, ...) @printf(i8* getelementptr inbounds ([4 x i8], [4 x i8]* @.str.1, i64 0, i64 0), i32 %197)
  store i32 0, i32* %2, align 4
  br label %199

199:                                              ; preds = %219, %195
  %200 = load i32, i32* %2, align 4
  %201 = load i32, i32* %4, align 4
  %202 = icmp slt i32 %200, %201
  br i1 %202, label %203, label %222

203:                                              ; preds = %199
  %204 = load i32, i32* %2, align 4
  %205 = sext i32 %204 to i64
  %206 = getelementptr inbounds [500 x i32], [500 x i32]* %7, i64 0, i64 %205
  %207 = load i32, i32* %206, align 4
  %208 = getelementptr inbounds [500 x i32], [500 x i32]* %7, i64 0, i64 0
  %209 = load i32, i32* %208, align 16
  %210 = icmp slt i32 %207, %209
  br i1 %210, label %211, label %212

211:                                              ; preds = %203
  br label %222

212:                                              ; preds = %203
  %213 = load i32, i32* %2, align 4
  %214 = sext i32 %213 to i64
  %215 = getelementptr inbounds [510 x [5 x i8]], [510 x [5 x i8]]* %9, i64 0, i64 %214
  %216 = getelementptr inbounds [5 x i8], [5 x i8]* %215, i64 0, i64 0
  %217 = call i32 (i8*, ...) @printf(i8* getelementptr inbounds ([4 x i8], [4 x i8]* @.str.2, i64 0, i64 0), i8* %216)
  br label %218

218:                                              ; preds = %212
  br label %219

219:                                              ; preds = %218
  %220 = load i32, i32* %2, align 4
  %221 = add nsw i32 %220, 1
  store i32 %221, i32* %2, align 4
  br label %199

222:                                              ; preds = %211, %199
  br label %225

223:                                              ; preds = %191
  %224 = call i32 (i8*, ...) @printf(i8* getelementptr inbounds ([3 x i8], [3 x i8]* @.str.3, i64 0, i64 0))
  br label %225

225:                                              ; preds = %223, %222
  ret i32 0
}

; Function Attrs: argmemonly nounwind willreturn
declare void @llvm.memset.p0i8.i64(i8* nocapture writeonly, i8, i64, i1 immarg) #1

declare dso_local i32 @__isoc99_scanf(i8*, ...) #2

declare dso_local i32 @getchar() #2

declare dso_local i32 @gets(...) #2

; Function Attrs: nounwind readonly
declare dso_local i64 @strlen(i8*) #3

; Function Attrs: nounwind
declare dso_local i8* @strcpy(i8*, i8*) #4

declare dso_local i32 @printf(i8*, ...) #2


!llvm.module.flags = !{!0}
!llvm.ident = !{!1}

!0 = !{i32 1, !"wchar_size", i32 4}
!1 = !{!"clang version 10.0.0-4ubuntu1 "}
